; Function Attrs: mustprogress nofree norecurse nosync nounwind willreturn memory(read, inaccessiblemem: none) uwtable
define internal range(i32 0, 101) i32 @read_probe(ptr noundef readonly captures(none) %0) #0 {
  %2 = getelementptr inbounds nuw i8, ptr %0, i64 8
  %3 = load ptr, ptr %2, align 8, !tbaa !4
  %4 = load i32, ptr %3, align 1, !tbaa !11
  %.not = icmp eq i32 %4, 234881024
  br i1 %.not, label %5, label %11

5:                                                ; preds = %1
  %6 = getelementptr inbounds nuw i8, ptr %3, i64 4
  %7 = load i32, ptr %6, align 1, !tbaa !11
  %.not3 = icmp eq i32 %7, 1342177280
  br i1 %.not3, label %8, label %11

8:                                                ; preds = %5
  %9 = getelementptr inbounds nuw i8, ptr %3, i64 12
  %10 = load i32, ptr %9, align 1, !tbaa !11
  %.not4 = icmp eq i32 %10, 872415232
  %spec.select = select i1 %.not4, i32 100, i32 0
  br label %11

11:                                               ; preds = %8, %1, %5
  %.0 = phi i32 [ 0, %5 ], [ 0, %1 ], [ %spec.select, %8 ]
  ret i32 %.0
}